; Function Attrs: mustprogress nofree norecurse nosync nounwind uwtable
define noundef i64 @_ZN11duckdb_zstd31ZSTD_compressBlock_fast_extDictEPNS_17ZSTD_matchState_tEPNS_10seqStore_tEPjPKvm(ptr noundef readonly captures(none) %0, ptr noundef %1, ptr noundef captures(none) %2, ptr noundef %3, i64 noundef %4) local_unnamed_addr #2 {
switch.lookup:
  %5 = getelementptr inbounds nuw i8, ptr %0, i64 272
  %6 = load i32, ptr %5, align 8, !tbaa !30
  %switch.tableidx = add i32 %6, -5
  %7 = icmp ult i32 %switch.tableidx, 3
  %spec.select = select i1 %7, i32 %6, i32 4
  %8 = tail call fastcc noundef i64 @_ZN11duckdb_zstdL39ZSTD_compressBlock_fast_extDict_genericEPNS_17ZSTD_matchState_tEPNS_10seqStore_tEPjPKvmjj(ptr noundef nonnull readonly %0, ptr noundef %1, ptr noundef %2, ptr noundef %3, i64 noundef %4, i32 noundef %spec.select)
  ret i64 %8
}